target datalayout = "e-m:e-p270:32:32-p271:32:32-p272:64:64-i64:64-i128:128-f80:128-n8:16:32:64-S128"
target triple = "x86_64-unknown-linux-gnu"

%struct.PRManagerHelper = type { %struct.PRManager, ptr, %struct.QemuMutex, ptr }
%struct.PRManager = type { %struct.Object }
%struct.Object = type { ptr, ptr, ptr, i32, ptr }
%struct.QemuMutex = type { %union.pthread_mutex_t, i8 }
%union.pthread_mutex_t = type { %struct.__pthread_mutex_s }
%struct.__pthread_mutex_s = type { i32, i32, i32, i32, i32, i16, i16, %struct.__pthread_internal_list }
%struct.__pthread_internal_list = type { ptr, ptr }

; Function Attrs: nounwind sspstrong uwtable
define internal void @pr_manager_send_status_changed_event(ptr noundef %pr_mgr) #0 {
entry:
  %pr_mgr.addr = alloca ptr, align 8
  %id = alloca ptr, align 8
  store ptr %pr_mgr, ptr %pr_mgr.addr, align 8
  %0 = load ptr, ptr %pr_mgr.addr, align 8
  %call = call ptr @object_get_canonical_path_component(ptr noundef %0)
  store ptr %call, ptr %id, align 8
  %1 = load ptr, ptr %id, align 8
  %tobool = icmp ne ptr %1, null
  br i1 %tobool, label %if.then, label %if.end

if.then:                                          ; preds = %entry
  %2 = load ptr, ptr %id, align 8
  %3 = load ptr, ptr %pr_mgr.addr, align 8
  %ioc = getelementptr inbounds %struct.PRManagerHelper, ptr %3, i32 0, i32 3
  %4 = load ptr, ptr %ioc, align 8
  %tobool1 = icmp ne ptr %4, null
  %lnot = xor i1 %tobool1, true
  %lnot2 = xor i1 %lnot, true
  call void @qapi_event_send_pr_manager_status_changed(ptr noundef %2, i1 noundef zeroext %lnot2)
  br label %if.end

if.end:                                           ; preds = %if.then, %entry
  ret void
}

; Function Attrs: nounwind sspstrong uwtable
define internal i32 @pr_manager_helper_read(ptr noundef %pr_mgr, ptr noundef %buf, i32 noundef %sz, ptr noundef %errp) #0 {
entry:
  %retval = alloca i32, align 4
  %pr_mgr.addr = alloca ptr, align 8
  %buf.addr = alloca ptr, align 8
  %sz.addr = alloca i32, align 4
  %errp.addr = alloca ptr, align 8
  %r = alloca i64, align 8
  store ptr %pr_mgr, ptr %pr_mgr.addr, align 8
  store ptr %buf, ptr %buf.addr, align 8
  store i32 %sz, ptr %sz.addr, align 4
  store ptr %errp, ptr %errp.addr, align 8
  %0 = load ptr, ptr %pr_mgr.addr, align 8
  %ioc = getelementptr inbounds %struct.PRManagerHelper, ptr %0, i32 0, i32 3
  %1 = load ptr, ptr %ioc, align 8
  %2 = load ptr, ptr %buf.addr, align 8
  %3 = load i32, ptr %sz.addr, align 4
  %conv = sext i32 %3 to i64
  %4 = load ptr, ptr %errp.addr, align 8
  %call = call i32 @qio_channel_read_all(ptr noundef %1, ptr noundef %2, i64 noundef %conv, ptr noundef %4)
  %conv1 = sext i32 %call to i64
  store i64 %conv1, ptr %r, align 8
  %5 = load i64, ptr %r, align 8
  %cmp = icmp slt i64 %5, 0
  br i1 %cmp, label %if.then, label %if.end

if.then:                                          ; preds = %entry
  %6 = load ptr, ptr %pr_mgr.addr, align 8
  %ioc3 = getelementptr inbounds %struct.PRManagerHelper, ptr %6, i32 0, i32 3
  %7 = load ptr, ptr %ioc3, align 8
  call void @object_unref(ptr noundef %7)
  %8 = load ptr, ptr %pr_mgr.addr, align 8
  %ioc4 = getelementptr inbounds %struct.PRManagerHelper, ptr %8, i32 0, i32 3
  store ptr null, ptr %ioc4, align 8
  %9 = load ptr, ptr %pr_mgr.addr, align 8
  call void @pr_manager_send_status_changed_event(ptr noundef %9)
  store i32 -22, ptr %retval, align 4
  br label %return

if.end:                                           ; preds = %entry
  store i32 0, ptr %retval, align 4
  br label %return

return:                                           ; preds = %if.end, %if.then
  %10 = load i32, ptr %retval, align 4
  ret i32 %10
}