; Function Attrs: nounwind sspstrong uwtable
define internal fastcc range(i32 -22, 1) i32 @pr_manager_helper_read(ptr noundef %pr_mgr, ptr noundef %buf, i32 noundef %sz, ptr noundef %errp) unnamed_addr #0 {
entry:
  %ioc = getelementptr inbounds nuw i8, ptr %pr_mgr, i64 96
  %0 = load ptr, ptr %ioc, align 8
  %conv = sext i32 %sz to i64
  %call = tail call i32 @qio_channel_read_all(ptr noundef %0, ptr noundef %buf, i64 noundef %conv, ptr noundef %errp) #7
  %cmp = icmp slt i32 %call, 0
  br i1 %cmp, label %if.then, label %return

if.then:                                          ; preds = %entry
  %1 = load ptr, ptr %ioc, align 8
  tail call void @object_unref(ptr noundef %1) #7
  store ptr null, ptr %ioc, align 8
  %call.i = tail call ptr @object_get_canonical_path_component(ptr noundef nonnull %pr_mgr) #7
  %tobool.not.i = icmp eq ptr %call.i, null
  br i1 %tobool.not.i, label %return, label %if.then.i

if.then.i:                                        ; preds = %if.then
  %2 = load ptr, ptr %ioc, align 8
  %tobool1.i = icmp ne ptr %2, null
  tail call void @qapi_event_send_pr_manager_status_changed(ptr noundef nonnull %call.i, i1 noundef zeroext %tobool1.i) #7
  br label %return

return:                                           ; preds = %if.then.i, %if.then, %entry
  %retval.0 = phi i32 [ 0, %entry ], [ -22, %if.then ], [ -22, %if.then.i ]
  ret i32 %retval.0
}